; Function Attrs: nounwind uwtable
define internal noalias ptr @H5O__group_get_copy_file_udata() #0 {
  %1 = load i8, ptr @H5G_init_g, align 1, !tbaa !3, !range !7, !noundef !8
  %2 = trunc nuw i8 %1 to i1
  %3 = load i8, ptr @H5_libterm_g, align 1, !range !7
  %4 = trunc nuw i8 %3 to i1
  %5 = xor i1 %4, true
  %6 = select i1 %2, i1 true, i1 %5
  br i1 %6, label %7, label %14, !prof !9

7:                                                ; preds = %0
  %8 = tail call noalias ptr @H5FL_reg_calloc(ptr noundef nonnull @H5_H5G_copy_file_ud_t_reg_free_list) #3
  %9 = icmp eq ptr %8, null
  br i1 %9, label %10, label %14

10:                                               ; preds = %7
  %11 = load i64, ptr @H5E_RESOURCE_g, align 8, !tbaa !10
  %12 = load i64, ptr @H5E_NOSPACE_g, align 8, !tbaa !10
  %13 = tail call i32 (ptr, ptr, i32, i64, i64, ptr, ...) @H5E_printf_stack(ptr noundef nonnull @.str.2, ptr noundef nonnull @__func__.H5O__group_get_copy_file_udata, i32 noundef 103, i64 noundef %11, i64 noundef %12, ptr noundef nonnull @.str.3) #3
  br label %14

14:                                               ; preds = %10, %7, %0
  %.0 = phi ptr [ null, %10 ], [ %8, %7 ], [ null, %0 ]
  ret ptr %.0
}